target datalayout = "e-m:e-p270:32:32-p271:32:32-p272:64:64-i64:64-i128:128-f80:128-n8:16:32:64-S128"
target triple = "x86_64-pc-linux-gnu"

%struct.pubsubtype = type { i32, ptr, ptr, ptr, ptr, ptr, ptr }

; Function Attrs: nounwind uwtable
define dso_local i32 @pubsubPublishMessage(ptr noundef %0, ptr noundef %1, i32 noundef %2) #0 {
  %4 = alloca ptr, align 8
  %5 = alloca ptr, align 8
  %6 = alloca i32, align 4
  %7 = alloca %struct.pubsubtype, align 8
  store ptr %0, ptr %4, align 8, !tbaa !33
  store ptr %1, ptr %5, align 8, !tbaa !33
  store i32 %2, ptr %6, align 4, !tbaa !69
  %8 = load ptr, ptr %4, align 8, !tbaa !33
  %9 = load ptr, ptr %5, align 8, !tbaa !33
  %10 = load i32, ptr %6, align 4, !tbaa !69
  %11 = icmp ne i32 %10, 0
  br i1 %11, label %12, label %13

12:                                               ; preds = %3
  call void @llvm.memcpy.p0.p0.i64(ptr align 8 %7, ptr align 8 @pubSubShardType, i64 56, i1 false), !tbaa.struct !98
  br label %14

13:                                               ; preds = %3
  call void @llvm.memcpy.p0.p0.i64(ptr align 8 %7, ptr align 8 @pubSubType, i64 56, i1 false), !tbaa.struct !98
  br label %14

14:                                               ; preds = %13, %12
  %15 = call i32 @pubsubPublishMessageInternal(ptr noundef %8, ptr noundef %9, ptr noundef byval(%struct.pubsubtype) align 8 %7)
  ret i32 %15
}