; Function Attrs: nounwind uwtable
define dso_local i32 @pubsubPublishMessage(ptr noundef %0, ptr noundef %1, i32 noundef %2) local_unnamed_addr #2 {
  %4 = alloca %struct.pubsubtype, align 8
  %.not = icmp eq i32 %2, 0
  br i1 %.not, label %6, label %5

5:                                                ; preds = %3
  call void @llvm.memcpy.p0.p0.i64(ptr noundef nonnull align 8 dereferenceable(56) %4, ptr noundef nonnull align 8 dereferenceable(56) @pubSubShardType, i64 56, i1 false), !tbaa.struct !91
  br label %7

6:                                                ; preds = %3
  call void @llvm.memcpy.p0.p0.i64(ptr noundef nonnull align 8 dereferenceable(56) %4, ptr noundef nonnull align 8 dereferenceable(56) @pubSubType, i64 56, i1 false), !tbaa.struct !91
  br label %7

7:                                                ; preds = %6, %5
  %8 = tail call i32 @pubsubPublishMessageInternal(ptr noundef %0, ptr noundef %1, ptr noundef nonnull byval(%struct.pubsubtype) align 8 %4)
  ret i32 %8
}